; Function Attrs: mustprogress nofree norecurse nosync nounwind memory(readwrite, inaccessiblemem: none) uwtable
define dso_local void @_ZN4llvm5APInt16orAssignSlowCaseERKS0_(ptr noundef nonnull readonly align 8 captures(none) dereferenceable(12) %0, ptr noundef nonnull readonly align 8 captures(none) dereferenceable(12) %1) local_unnamed_addr #4 align 2 {
  %3 = load ptr, ptr %0, align 8
  %4 = load ptr, ptr %1, align 8
  %5 = getelementptr inbounds nuw i8, ptr %0, i64 8
  %6 = load i32, ptr %5, align 8
  %7 = zext i32 %6 to i64
  %8 = add nuw nsw i64 %7, 63
  %9 = lshr i64 %8, 6
  %.not8 = icmp eq i32 %6, 0
  br i1 %.not8, label %._crit_edge, label %.lr.ph

.lr.ph:                                           ; preds = %2, %.lr.ph
  %.09 = phi i64 [ %15, %.lr.ph ], [ 0, %2 ]
  %10 = getelementptr inbounds nuw i64, ptr %4, i64 %.09
  %11 = load i64, ptr %10, align 8
  %12 = getelementptr inbounds nuw i64, ptr %3, i64 %.09
  %13 = load i64, ptr %12, align 8
  %14 = or i64 %13, %11
  store i64 %14, ptr %12, align 8
  %15 = add nuw nsw i64 %.09, 1
  %.not = icmp eq i64 %15, %9
  br i1 %.not, label %._crit_edge, label %.lr.ph, !llvm.loop !16

._crit_edge:                                      ; preds = %.lr.ph, %2
  ret void
}